; Function Attrs: mustprogress uwtable
define internal fastcc noundef zeroext i1 @_ZL14SpeedECDHCurveRKNSt7__cxx1112basic_stringIcSt11char_traitsIcESaIcEEEiS6_(ptr noundef nonnull align 8 dereferenceable(32) %0, i32 noundef range(i32 415, 717) %1, ptr %.0.val, i64 %.8.val) unnamed_addr #0 personality ptr @__gxx_personality_v0 {
  %3 = alloca %struct.TimeResults, align 4
  %4 = alloca %"class.std::function", align 8
  %5 = icmp eq i64 %.8.val, 0
  br i1 %5, label %9, label %6

6:                                                ; preds = %2
  %7 = tail call noundef i64 @_ZNKSt7__cxx1112basic_stringIcSt11char_traitsIcESaIcEE4findEPKcmm(ptr noundef nonnull align 8 dereferenceable(32) %0, ptr noundef %.0.val, i64 noundef 0, i64 noundef %.8.val) #19
  %8 = icmp eq i64 %7, -1
  br i1 %8, label %39, label %9

9:                                                ; preds = %6, %2
  call void @llvm.lifetime.start.p0(i64 8, ptr nonnull %3) #19
  %10 = getelementptr inbounds nuw i8, ptr %4, i64 16
  %11 = getelementptr inbounds nuw i8, ptr %4, i64 24
  call void @llvm.memset.p0.i64(ptr noundef nonnull align 8 dereferenceable(32) %4, i8 0, i64 16, i1 false)
  store i32 %1, ptr %4, align 8, !tbaa !43
  store ptr @"_ZNSt17_Function_handlerIFbvEZL14SpeedECDHCurveRKNSt7__cxx1112basic_stringIcSt11char_traitsIcESaIcEEEiS8_E3$_0E9_M_invokeERKSt9_Any_data", ptr %11, align 8, !tbaa !32
  store ptr @"_ZNSt17_Function_handlerIFbvEZL14SpeedECDHCurveRKNSt7__cxx1112basic_stringIcSt11char_traitsIcESaIcEEEiS8_E3$_0E10_M_managerERSt9_Any_dataRKSB_St18_Manager_operation", ptr %10, align 8, !tbaa !35
  %12 = invoke fastcc noundef zeroext i1 @_ZL12TimeFunctionP11TimeResultsSt8functionIFbvEE(ptr noundef %3, ptr noundef %4)
          to label %13 unwind label %20

13:                                               ; preds = %9
  %14 = load ptr, ptr %10, align 8, !tbaa !35
  %.not.i = icmp eq ptr %14, null
  br i1 %.not.i, label %_ZNSt14_Function_baseD2Ev.exit, label %15

15:                                               ; preds = %13
  %16 = invoke noundef zeroext i1 %14(ptr noundef nonnull align 8 dereferenceable(32) %4, ptr noundef nonnull align 8 dereferenceable(32) %4, i32 noundef 3)
          to label %_ZNSt14_Function_baseD2Ev.exit unwind label %17

17:                                               ; preds = %15
  %18 = landingpad { ptr, i32 }
          catch ptr null
  %19 = extractvalue { ptr, i32 } %18, 0
  call void @__clang_call_terminate(ptr %19) #23
  unreachable

_ZNSt14_Function_baseD2Ev.exit:                   ; preds = %13, %15
  br i1 %12, label %28, label %38

20:                                               ; preds = %9
  %21 = landingpad { ptr, i32 }
          cleanup
  %22 = load ptr, ptr %10, align 8, !tbaa !35
  %.not.i7 = icmp eq ptr %22, null
  br i1 %.not.i7, label %_ZNSt14_Function_baseD2Ev.exit8, label %23

23:                                               ; preds = %20
  %24 = invoke noundef zeroext i1 %22(ptr noundef nonnull align 8 dereferenceable(32) %4, ptr noundef nonnull align 8 dereferenceable(32) %4, i32 noundef 3)
          to label %_ZNSt14_Function_baseD2Ev.exit8 unwind label %25

25:                                               ; preds = %23
  %26 = landingpad { ptr, i32 }
          catch ptr null
  %27 = extractvalue { ptr, i32 } %26, 0
  call void @__clang_call_terminate(ptr %27) #23
  unreachable

_ZNSt14_Function_baseD2Ev.exit8:                  ; preds = %20, %23
  call void @llvm.lifetime.end.p0(i64 8, ptr nonnull %3) #19
  resume { ptr, i32 } %21

28:                                               ; preds = %_ZNSt14_Function_baseD2Ev.exit
  %29 = load i32, ptr %3, align 4, !tbaa !39
  %30 = load ptr, ptr %0, align 8, !tbaa !23
  %31 = getelementptr inbounds nuw i8, ptr %3, i64 4
  %32 = load i32, ptr %31, align 4, !tbaa !42
  %33 = uitofp i32 %29 to double
  %34 = uitofp i32 %32 to double
  %35 = fdiv double %33, %34
  %36 = fmul double %35, 1.000000e+06
  %37 = call i32 (ptr, ...) @printf(ptr noundef nonnull dereferenceable(1) @.str.22, i32 noundef %29, ptr noundef %30, i32 noundef %32, double noundef %36)
  br label %38

38:                                               ; preds = %_ZNSt14_Function_baseD2Ev.exit, %28
  call void @llvm.lifetime.end.p0(i64 8, ptr nonnull %3) #19
  br label %39

39:                                               ; preds = %6, %38
  %.0 = phi i1 [ %12, %38 ], [ true, %6 ]
  ret i1 %.0
}